target datalayout = "e-m:e-p270:32:32-p271:32:32-p272:64:64-i64:64-i128:128-f80:128-n8:16:32:64-S128"
target triple = "x86_64-pc-linux-gnu"

%struct.H5D_layout_ops_t = type { ptr, ptr, ptr, ptr, ptr, ptr, ptr, ptr, ptr, ptr, ptr, ptr, ptr }
%struct.H5O_storage_virtual_srcdset_t = type { ptr, ptr, ptr, ptr, ptr, ptr, i8, ptr }
%union.H5_flexible_const_ptr_t = type { ptr }
%struct.H5D_dset_io_info_t = type { ptr, ptr, %struct.H5D_layout_ops_t, %union.H5_flexible_const_ptr_t, %struct.H5D_io_ops_t, ptr, i64, ptr, ptr, %union.anon.8, ptr, %struct.H5D_type_info_t, i8 }
%struct.H5D_io_ops_t = type { ptr, ptr, ptr, ptr }
%union.anon.8 = type { ptr }
%struct.H5D_type_info_t = type { ptr, ptr, ptr, ptr, ptr, i64, i64, i8, i8, ptr, i32, i64 }

@H5D_init_g = external global i8, align 1
@H5_libterm_g = external global i8, align 1
@.str.1 = private unnamed_addr constant [104 x i8] c"generated/home/dtcxzyw/WorkSpace/Projects/compilers/llvm-opt-benchmark/bench/hdf5/hdf5/src/H5Dvirtual.c\00", align 1
@H5E_DATASET_g = external global i64, align 8
@H5E_CLOSEERROR_g = external global i64, align 8
@H5E_CANTCLIP_g = external global i64, align 8
@H5E_READERROR_g = external global i64, align 8
@__func__.H5D__virtual_read_one = private unnamed_addr constant [22 x i8] c"H5D__virtual_read_one\00", align 1
@.str.100 = private unnamed_addr constant [53 x i8] c"can't project virtual intersection onto source space\00", align 1
@.str.101 = private unnamed_addr constant [26 x i8] c"can't read source dataset\00", align 1
@.str.102 = private unnamed_addr constant [35 x i8] c"can't close projected source space\00", align 1

; Function Attrs: nounwind uwtable
define internal i32 @H5D__virtual_read_one(ptr noundef %0, ptr noundef %1) #0 {
  %3 = alloca ptr, align 8
  %4 = alloca ptr, align 8
  %5 = alloca ptr, align 8
  %6 = alloca %struct.H5D_dset_io_info_t, align 8
  %7 = alloca i32, align 4
  %8 = alloca i8, align 1
  store ptr %0, ptr %3, align 8, !tbaa !91
  store ptr %1, ptr %4, align 8, !tbaa !165
  call void @llvm.lifetime.start.p0(i64 8, ptr %5) #10
  store ptr null, ptr %5, align 8, !tbaa !101
  call void @llvm.lifetime.start.p0(i64 304, ptr %6) #10
  call void @llvm.lifetime.start.p0(i64 4, ptr %7) #10
  store i32 0, ptr %7, align 4, !tbaa !12
  call void @llvm.lifetime.start.p0(i64 1, ptr %8) #10
  store i8 0, ptr %8, align 1, !tbaa !14
  %9 = load i8, ptr @H5D_init_g, align 1, !tbaa !14, !range !16, !noundef !17
  %10 = trunc i8 %9 to i1
  br i1 %10, label %15, label %11

11:                                               ; preds = %2
  %12 = load i8, ptr @H5_libterm_g, align 1, !tbaa !14, !range !16, !noundef !17
  %13 = trunc i8 %12 to i1
  %14 = xor i1 %13, true
  br label %15

15:                                               ; preds = %11, %2
  %16 = phi i1 [ true, %2 ], [ %14, %11 ]
  %17 = xor i1 %16, true
  %18 = xor i1 %17, true
  %19 = zext i1 %18 to i32
  %20 = sext i32 %19 to i64
  %21 = call i64 @llvm.expect.i64(i64 %20, i64 1)
  %22 = icmp ne i64 %21, 0
  br i1 %22, label %23, label %150

23:                                               ; preds = %15
  %24 = load ptr, ptr %4, align 8, !tbaa !165
  %25 = getelementptr inbounds nuw %struct.H5O_storage_virtual_srcdset_t, ptr %24, i32 0, i32 7
  %26 = load ptr, ptr %25, align 8, !tbaa !114
  %27 = icmp ne ptr %26, null
  br i1 %27, label %28, label %124

28:                                               ; preds = %23
  %29 = load ptr, ptr %4, align 8, !tbaa !165
  %30 = getelementptr inbounds nuw %struct.H5O_storage_virtual_srcdset_t, ptr %29, i32 0, i32 4
  %31 = load ptr, ptr %30, align 8, !tbaa !168
  %32 = load ptr, ptr %4, align 8, !tbaa !165
  %33 = getelementptr inbounds nuw %struct.H5O_storage_virtual_srcdset_t, ptr %32, i32 0, i32 3
  %34 = load ptr, ptr %33, align 8, !tbaa !170
  %35 = load ptr, ptr %3, align 8, !tbaa !91
  %36 = getelementptr inbounds nuw %struct.H5D_dset_io_info_t, ptr %35, i32 0, i32 7
  %37 = load ptr, ptr %36, align 8, !tbaa !110
  %38 = call i32 @H5S_select_project_intersection(ptr noundef %31, ptr noundef %34, ptr noundef %37, ptr noundef %5, i1 noundef zeroext true)
  %39 = icmp slt i32 %38, 0
  br i1 %39, label %40, label %59

40:                                               ; preds = %28
  br label %41

41:                                               ; preds = %40
  br label %42

42:                                               ; preds = %41
  br label %43

43:                                               ; preds = %42
  %44 = load i64, ptr @H5E_DATASET_g, align 8, !tbaa !10
  %45 = load i64, ptr @H5E_CANTCLIP_g, align 8, !tbaa !10
  %46 = call i32 (ptr, ptr, i32, i64, i64, ptr, ...) @H5E_printf_stack(ptr noundef @.str.1, ptr noundef @__func__.H5D__virtual_read_one, i32 noundef 2680, i64 noundef %44, i64 noundef %45, ptr noundef @.str.100)
  br label %47

47:                                               ; preds = %43
  br label %48

48:                                               ; preds = %47
  store i8 1, ptr %8, align 1, !tbaa !14
  %49 = load i8, ptr %8, align 1, !tbaa !14, !range !16, !noundef !17
  %50 = trunc i8 %49 to i1
  %51 = zext i1 %50 to i8
  store i8 %51, ptr %8, align 1, !tbaa !14
  br label %52

52:                                               ; preds = %48
  br label %53

53:                                               ; preds = %52
  br label %54

54:                                               ; preds = %53
  store i32 -1, ptr %7, align 4, !tbaa !12
  br label %125

55:                                               ; No predecessors!
  br label %56

56:                                               ; preds = %55
  br label %57

57:                                               ; preds = %56
  br label %58

58:                                               ; preds = %57
  br label %59

59:                                               ; preds = %58, %28
  %60 = load ptr, ptr %4, align 8, !tbaa !165
  %61 = getelementptr inbounds nuw %struct.H5O_storage_virtual_srcdset_t, ptr %60, i32 0, i32 5
  %62 = load ptr, ptr %61, align 8, !tbaa !82
  %63 = getelementptr inbounds nuw %struct.H5D_dset_io_info_t, ptr %6, i32 0, i32 0
  store ptr %62, ptr %63, align 8, !tbaa !102
  %64 = load ptr, ptr %4, align 8, !tbaa !165
  %65 = getelementptr inbounds nuw %struct.H5O_storage_virtual_srcdset_t, ptr %64, i32 0, i32 7
  %66 = load ptr, ptr %65, align 8, !tbaa !114
  %67 = getelementptr inbounds nuw %struct.H5D_dset_io_info_t, ptr %6, i32 0, i32 8
  store ptr %66, ptr %67, align 8, !tbaa !111
  %68 = load ptr, ptr %5, align 8, !tbaa !101
  %69 = getelementptr inbounds nuw %struct.H5D_dset_io_info_t, ptr %6, i32 0, i32 7
  store ptr %68, ptr %69, align 8, !tbaa !110
  %70 = load ptr, ptr %3, align 8, !tbaa !91
  %71 = getelementptr inbounds nuw %struct.H5D_dset_io_info_t, ptr %70, i32 0, i32 3
  %72 = load ptr, ptr %71, align 8, !tbaa !120
  %73 = getelementptr inbounds nuw %struct.H5D_dset_io_info_t, ptr %6, i32 0, i32 3
  store ptr %72, ptr %73, align 8, !tbaa !120
  %74 = load ptr, ptr %3, align 8, !tbaa !91
  %75 = getelementptr inbounds nuw %struct.H5D_dset_io_info_t, ptr %74, i32 0, i32 11
  %76 = getelementptr inbounds nuw %struct.H5D_type_info_t, ptr %75, i32 0, i32 3
  %77 = load ptr, ptr %76, align 8, !tbaa !211
  %78 = getelementptr inbounds nuw %struct.H5D_dset_io_info_t, ptr %6, i32 0, i32 10
  store ptr %77, ptr %78, align 8, !tbaa !212
  %79 = call i32 @H5D__read(i64 noundef 1, ptr noundef %6)
  %80 = icmp slt i32 %79, 0
  br i1 %80, label %81, label %100

81:                                               ; preds = %59
  br label %82

82:                                               ; preds = %81
  br label %83

83:                                               ; preds = %82
  br label %84

84:                                               ; preds = %83
  %85 = load i64, ptr @H5E_DATASET_g, align 8, !tbaa !10
  %86 = load i64, ptr @H5E_READERROR_g, align 8, !tbaa !10
  %87 = call i32 (ptr, ptr, i32, i64, i64, ptr, ...) @H5E_printf_stack(ptr noundef @.str.1, ptr noundef @__func__.H5D__virtual_read_one, i32 noundef 2692, i64 noundef %85, i64 noundef %86, ptr noundef @.str.101)
  br label %88

88:                                               ; preds = %84
  br label %89

89:                                               ; preds = %88
  store i8 1, ptr %8, align 1, !tbaa !14
  %90 = load i8, ptr %8, align 1, !tbaa !14, !range !16, !noundef !17
  %91 = trunc i8 %90 to i1
  %92 = zext i1 %91 to i8
  store i8 %92, ptr %8, align 1, !tbaa !14
  br label %93

93:                                               ; preds = %89
  br label %94

94:                                               ; preds = %93
  br label %95

95:                                               ; preds = %94
  store i32 -1, ptr %7, align 4, !tbaa !12
  br label %125

96:                                               ; No predecessors!
  br label %97

97:                                               ; preds = %96
  br label %98

98:                                               ; preds = %97
  br label %99

99:                                               ; preds = %98
  br label %100

100:                                              ; preds = %99, %59
  %101 = load ptr, ptr %5, align 8, !tbaa !101
  %102 = call i32 @H5S_close(ptr noundef %101)
  %103 = icmp slt i32 %102, 0
  br i1 %103, label %104, label %123

104:                                              ; preds = %100
  br label %105

105:                                              ; preds = %104
  br label %106

106:                                              ; preds = %105
  br label %107

107:                                              ; preds = %106
  %108 = load i64, ptr @H5E_DATASET_g, align 8, !tbaa !10
  %109 = load i64, ptr @H5E_CLOSEERROR_g, align 8, !tbaa !10
  %110 = call i32 (ptr, ptr, i32, i64, i64, ptr, ...) @H5E_printf_stack(ptr noundef @.str.1, ptr noundef @__func__.H5D__virtual_read_one, i32 noundef 2697, i64 noundef %108, i64 noundef %109, ptr noundef @.str.102)
  br label %111

111:                                              ; preds = %107
  br label %112

112:                                              ; preds = %111
  store i8 1, ptr %8, align 1, !tbaa !14
  %113 = load i8, ptr %8, align 1, !tbaa !14, !range !16, !noundef !17
  %114 = trunc i8 %113 to i1
  %115 = zext i1 %114 to i8
  store i8 %115, ptr %8, align 1, !tbaa !14
  br label %116

116:                                              ; preds = %112
  br label %117

117:                                              ; preds = %116
  br label %118

118:                                              ; preds = %117
  store i32 -1, ptr %7, align 4, !tbaa !12
  br label %125

119:                                              ; No predecessors!
  br label %120

120:                                              ; preds = %119
  br label %121

121:                                              ; preds = %120
  br label %122

122:                                              ; preds = %121
  br label %123

123:                                              ; preds = %122, %100
  store ptr null, ptr %5, align 8, !tbaa !101
  br label %124

124:                                              ; preds = %123, %23
  br label %125

125:                                              ; preds = %124, %118, %95, %54
  %126 = load ptr, ptr %5, align 8, !tbaa !101
  %127 = icmp ne ptr %126, null
  br i1 %127, label %128, label %149

128:                                              ; preds = %125
  %129 = load ptr, ptr %5, align 8, !tbaa !101
  %130 = call i32 @H5S_close(ptr noundef %129)
  %131 = icmp slt i32 %130, 0
  br i1 %131, label %132, label %148

132:                                              ; preds = %128
  br label %133

133:                                              ; preds = %132
  br label %134

134:                                              ; preds = %133
  br label %135

135:                                              ; preds = %134
  %136 = load i64, ptr @H5E_DATASET_g, align 8, !tbaa !10
  %137 = load i64, ptr @H5E_CLOSEERROR_g, align 8, !tbaa !10
  %138 = call i32 (ptr, ptr, i32, i64, i64, ptr, ...) @H5E_printf_stack(ptr noundef @.str.1, ptr noundef @__func__.H5D__virtual_read_one, i32 noundef 2706, i64 noundef %136, i64 noundef %137, ptr noundef @.str.102)
  br label %139

139:                                              ; preds = %135
  br label %140

140:                                              ; preds = %139
  store i8 1, ptr %8, align 1, !tbaa !14
  %141 = load i8, ptr %8, align 1, !tbaa !14, !range !16, !noundef !17
  %142 = trunc i8 %141 to i1
  %143 = zext i1 %142 to i8
  store i8 %143, ptr %8, align 1, !tbaa !14
  br label %144

144:                                              ; preds = %140
  br label %145

145:                                              ; preds = %144
  store i32 -1, ptr %7, align 4, !tbaa !12
  br label %146

146:                                              ; preds = %145
  br label %147

147:                                              ; preds = %146
  br label %148

148:                                              ; preds = %147, %128
  br label %149

149:                                              ; preds = %148, %125
  br label %150

150:                                              ; preds = %149, %15
  %151 = load i32, ptr %7, align 4, !tbaa !12
  call void @llvm.lifetime.end.p0(i64 1, ptr %8) #10
  call void @llvm.lifetime.end.p0(i64 4, ptr %7) #10
  call void @llvm.lifetime.end.p0(i64 304, ptr %6) #10
  call void @llvm.lifetime.end.p0(i64 8, ptr %5) #10
  ret i32 %151
}