; Function Attrs: nounwind uwtable
define internal fastcc range(i32 -1, 1) i32 @H5D__virtual_read_one(ptr noundef readonly captures(none) %0, ptr noundef readonly captures(none) %1) unnamed_addr #0 {
  %3 = alloca ptr, align 8
  %4 = alloca %struct.H5D_dset_io_info_t, align 8
  call void @llvm.lifetime.start.p0(i64 8, ptr nonnull %3) #14
  store ptr null, ptr %3, align 8, !tbaa !186
  call void @llvm.lifetime.start.p0(i64 304, ptr nonnull %4) #14
  %5 = load i8, ptr @H5D_init_g, align 1, !tbaa !3, !range !7, !noundef !8
  %6 = trunc nuw i8 %5 to i1
  %7 = load i8, ptr @H5_libterm_g, align 1, !range !7
  %8 = trunc nuw i8 %7 to i1
  %9 = xor i1 %8, true
  %10 = select i1 %6, i1 true, i1 %9
  br i1 %10, label %11, label %.thread, !prof !9

11:                                               ; preds = %2
  %12 = getelementptr inbounds nuw i8, ptr %1, i64 56
  %13 = load ptr, ptr %12, align 8, !tbaa !102
  %.not = icmp eq ptr %13, null
  br i1 %.not, label %54, label %14

14:                                               ; preds = %11
  %15 = getelementptr inbounds nuw i8, ptr %1, i64 32
  %16 = load ptr, ptr %15, align 8, !tbaa !150
  %17 = getelementptr inbounds nuw i8, ptr %1, i64 24
  %18 = load ptr, ptr %17, align 8, !tbaa !152
  %19 = getelementptr inbounds nuw i8, ptr %0, i64 176
  %20 = load ptr, ptr %19, align 8, !tbaa !98
  %21 = call i32 @H5S_select_project_intersection(ptr noundef %16, ptr noundef %18, ptr noundef %20, ptr noundef nonnull %3, i1 noundef zeroext true) #14
  %22 = icmp slt i32 %21, 0
  br i1 %22, label %23, label %27

23:                                               ; preds = %14
  %24 = load i64, ptr @H5E_DATASET_g, align 8, !tbaa !24
  %25 = load i64, ptr @H5E_CANTCLIP_g, align 8, !tbaa !24
  %26 = call i32 (ptr, ptr, i32, i64, i64, ptr, ...) @H5E_printf_stack(ptr noundef nonnull @.str.1, ptr noundef nonnull @__func__.H5D__virtual_read_one, i32 noundef 2680, i64 noundef %24, i64 noundef %25, ptr noundef nonnull @.str.100) #14
  br label %54

27:                                               ; preds = %14
  %28 = getelementptr inbounds nuw i8, ptr %1, i64 40
  %29 = load ptr, ptr %28, align 8, !tbaa !74
  store ptr %29, ptr %4, align 8, !tbaa !90
  %30 = load ptr, ptr %12, align 8, !tbaa !102
  %31 = getelementptr inbounds nuw i8, ptr %4, i64 184
  store ptr %30, ptr %31, align 8, !tbaa !99
  %32 = load ptr, ptr %3, align 8, !tbaa !186
  %33 = getelementptr inbounds nuw i8, ptr %4, i64 176
  store ptr %32, ptr %33, align 8, !tbaa !98
  %34 = getelementptr inbounds nuw i8, ptr %0, i64 120
  %35 = load ptr, ptr %34, align 8, !tbaa !108
  %36 = getelementptr inbounds nuw i8, ptr %4, i64 120
  store ptr %35, ptr %36, align 8, !tbaa !108
  %37 = getelementptr inbounds nuw i8, ptr %0, i64 232
  %38 = load ptr, ptr %37, align 8, !tbaa !187
  %39 = getelementptr inbounds nuw i8, ptr %4, i64 200
  store ptr %38, ptr %39, align 8, !tbaa !188
  %40 = call i32 @H5D__read(i64 noundef 1, ptr noundef nonnull %4) #14
  %41 = icmp slt i32 %40, 0
  br i1 %41, label %42, label %46

42:                                               ; preds = %27
  %43 = load i64, ptr @H5E_DATASET_g, align 8, !tbaa !24
  %44 = load i64, ptr @H5E_READERROR_g, align 8, !tbaa !24
  %45 = call i32 (ptr, ptr, i32, i64, i64, ptr, ...) @H5E_printf_stack(ptr noundef nonnull @.str.1, ptr noundef nonnull @__func__.H5D__virtual_read_one, i32 noundef 2692, i64 noundef %43, i64 noundef %44, ptr noundef nonnull @.str.101) #14
  br label %54

46:                                               ; preds = %27
  %47 = load ptr, ptr %3, align 8, !tbaa !186
  %48 = call i32 @H5S_close(ptr noundef %47) #14
  %49 = icmp slt i32 %48, 0
  br i1 %49, label %50, label %.thread

50:                                               ; preds = %46
  %51 = load i64, ptr @H5E_DATASET_g, align 8, !tbaa !24
  %52 = load i64, ptr @H5E_CLOSEERROR_g, align 8, !tbaa !24
  %53 = call i32 (ptr, ptr, i32, i64, i64, ptr, ...) @H5E_printf_stack(ptr noundef nonnull @.str.1, ptr noundef nonnull @__func__.H5D__virtual_read_one, i32 noundef 2697, i64 noundef %51, i64 noundef %52, ptr noundef nonnull @.str.102) #14
  br label %54

54:                                               ; preds = %11, %50, %42, %23
  %.1.ph = phi i32 [ 0, %11 ], [ -1, %50 ], [ -1, %42 ], [ -1, %23 ]
  %.pr = load ptr, ptr %3, align 8, !tbaa !186
  %.not13 = icmp eq ptr %.pr, null
  br i1 %.not13, label %.thread, label %55

55:                                               ; preds = %54
  %56 = call i32 @H5S_close(ptr noundef nonnull %.pr) #14
  %57 = icmp slt i32 %56, 0
  br i1 %57, label %58, label %.thread

58:                                               ; preds = %55
  %59 = load i64, ptr @H5E_DATASET_g, align 8, !tbaa !24
  %60 = load i64, ptr @H5E_CLOSEERROR_g, align 8, !tbaa !24
  %61 = call i32 (ptr, ptr, i32, i64, i64, ptr, ...) @H5E_printf_stack(ptr noundef nonnull @.str.1, ptr noundef nonnull @__func__.H5D__virtual_read_one, i32 noundef 2706, i64 noundef %59, i64 noundef %60, ptr noundef nonnull @.str.102) #14
  br label %.thread

.thread:                                          ; preds = %46, %54, %58, %55, %2
  %.0 = phi i32 [ -1, %58 ], [ %.1.ph, %55 ], [ %.1.ph, %54 ], [ 0, %2 ], [ 0, %46 ]
  call void @llvm.lifetime.end.p0(i64 304, ptr nonnull %4) #14
  call void @llvm.lifetime.end.p0(i64 8, ptr nonnull %3) #14
  ret i32 %.0
}